; Function Attrs: mustprogress nounwind uwtable
define dso_local noundef ptr @_ZN5cmsys4Glob11GetRelativeEv(ptr noundef nonnull align 8 dereferenceable(82) %0) local_unnamed_addr #5 align 2 {
  %2 = getelementptr inbounds nuw i8, ptr %0, i64 16
  %3 = tail call noundef zeroext i1 @_ZNKSt7__cxx1112basic_stringIcSt11char_traitsIcESaIcEE5emptyEv(ptr noundef nonnull align 8 dereferenceable(32) %2) #17
  br i1 %3, label %6, label %4

4:                                                ; preds = %1
  %5 = tail call noundef ptr @_ZNKSt7__cxx1112basic_stringIcSt11char_traitsIcESaIcEE5c_strEv(ptr noundef nonnull align 8 dereferenceable(32) %2) #17
  br label %6

6:                                                ; preds = %1, %4
  %.0 = phi ptr [ %5, %4 ], [ null, %1 ]
  ret ptr %.0
}